	.file	"main.c"
__SP_L__ = 0x3d
__SREG__ = 0x3f
__tmp_reg__ = 0
__zero_reg__ = 1
	.text
.Ltext0:
	.cfi_sections	.debug_frame
	.section	.text.dispnum,"ax",@progbits
.global	dispnum
	.type	dispnum, @function
dispnum:
.LFB7:
	.file 1 ".././main.c"
	.loc 1 101 0
	.cfi_startproc
.LVL0:
	push r28
.LCFI0:
	.cfi_def_cfa_offset 3
	.cfi_offset 28, -2
	push r29
.LCFI1:
	.cfi_def_cfa_offset 4
	.cfi_offset 29, -3
/* prologue: function */
/* frame size = 0 */
/* stack size = 2 */
.L__stack_usage = 2
	movw r18,r24
.LVL1:
	.loc 1 106 0
	ldi r28,lo8(leddata)
	ldi r29,hi8(leddata)
	ldi r22,lo8(100)
	ldi r23,0
	rcall __udivmodhi4
.LVL2:
	movw r30,r22
	clr r31
	subi r30,lo8(-(lednumbers))
	sbci r31,hi8(-(lednumbers))
	ld r24,Z
	st Y,r24
	.loc 1 107 0
	ldi r30,lo8(10)
	ldi r31,0
	movw r24,r18
	movw r22,r30
	rcall __udivmodhi4
	movw r18,r24
.LVL3:
	movw r24,r22
	movw r22,r30
	rcall __udivmodhi4
	movw r30,r24
	subi r30,lo8(-(lednumbers))
	sbci r31,hi8(-(lednumbers))
	ld r24,Z
	std Y+1,r24
	.loc 1 108 0
	movw r30,r18
	subi r30,lo8(-(lednumbers))
	sbci r31,hi8(-(lednumbers))
	ld r24,Z
	std Y+2,r24
/* epilogue start */
	.loc 1 109 0
	pop r29
	pop r28
	ret
	.cfi_endproc
.LFE7:
	.size	dispnum, .-dispnum
	.section	.text.startup.main,"ax",@progbits
.global	main
	.type	main, @function
main:
.LFB6:
	.loc 1 43 0
	.cfi_startproc
/* prologue: function */
/* frame size = 0 */
/* stack size = 0 */
.L__stack_usage = 0
	.loc 1 44 0
/* #APP */
 ;  44 ".././main.c" 1
	cli
 ;  0 "" 2
	.loc 1 45 0
 ;  45 ".././main.c" 1
	wdr
 ;  0 "" 2
	.loc 1 46 0
/* #NOAPP */
	in r24,0x34
	andi r24,lo8(-9)
	out 0x34,r24
	.loc 1 47 0
	in r24,0x21
	ori r24,lo8(24)
	out 0x21,r24
	.loc 1 48 0
	out 0x21,__zero_reg__
	.loc 1 49 0
	sbi 0x18,1
	.loc 1 50 0
	sbic 0x16,1
	rjmp .L3
	.loc 1 51 0
/* #APP */
 ;  51 ".././main.c" 1
	ldi r30, 0x6F
 ;  0 "" 2
	.loc 1 52 0
 ;  52 ".././main.c" 1
	ldi r31, 3
 ;  0 "" 2
	.loc 1 53 0
 ;  53 ".././main.c" 1
	ijmp
 ;  0 "" 2
/* #NOAPP */
.L3:
	.loc 1 55 0
	out 0x18,__zero_reg__
	.loc 1 56 0
	ldi r24,lo8(-3)
	out 0x17,r24
	.loc 1 57 0
	sbi 0x1a,1
	.loc 1 58 0
	in r24,0x11
	ori r24,lo8(28)
	out 0x11,r24
	.loc 1 59 0
	out 0x12,__zero_reg__
	.loc 1 60 0
	in r24,0x2f
	ori r24,lo8(1)
	out 0x2f,r24
	.loc 1 61 0
	in r24,0x2e
	ori r24,lo8(-54)
	out 0x2e,r24
	.loc 1 62 0
	in r24,0x39
	ori r24,lo8(-120)
	out 0x39,r24
	.loc 1 63 0
	in r24,0x30
	ori r24,lo8(18)
	out 0x30,r24
	.loc 1 64 0
	in r24,0x33
	ori r24,lo8(4)
	out 0x33,r24
	.loc 1 65 0
/* #APP */
 ;  65 ".././main.c" 1
	sei
 ;  0 "" 2
/* #NOAPP */
.LBB2:
	.loc 1 71 0
	ldi r24,lo8(-24)
	mov r12,r24
	ldi r24,lo8(3)
	mov r13,r24
	.loc 1 79 0
	ldi r17,lo8(1)
	.loc 1 96 0
	clr r14
	dec r14
	mov r15,r14
	.loc 1 93 0
	ldi r16,lo8(3)
	.loc 1 87 0
	ldi r18,lo8(18)
	mov r11,r18
.L4:
	.loc 1 69 0
	rcall ds18b20ReadTemp
.LVL4:
	movw r28,r24
.LVL5:
	.loc 1 71 0
	movw r22,r12
	rcall __udivmodhi4
.LVL6:
	rcall dispnum
.LVL7:
	.loc 1 72 0
	cpi r28,-48
	ldi r18,7
	cpc r29,r18
	brne .L5
	.loc 1 73 0
	sts beepe,r17
	.loc 1 74 0
	lds r24,beepc
	lds r25,beepc+1
	adiw r24,1
	brne .L6
.L23:
	.loc 1 74 0 is_stmt 0 discriminator 1
	sts beepc+1,__zero_reg__
	sts beepc,__zero_reg__
.L6:
	.loc 1 75 0 is_stmt 1
	sbi 0x11,5
	.loc 1 76 0
	out 0x36,r16
	.loc 1 77 0
	rjmp .L4
.L5:
	.loc 1 79 0
	lds r18,oldtemp.1757
	lds r19,oldtemp.1757+1
	ldi r25,lo8(1)
	cpi r18,-5
	cpc r19,__zero_reg__
	brsh .L10
	ldi r25,0
.L10:
	ldi r24,lo8(1)
	cpi r28,-5
	cpc r29,__zero_reg__
	brsh .L11
	ldi r24,0
.L11:
	cpse r25,r24
	rjmp .L16
	ldi r25,lo8(1)
	cpi r18,-6
	cpc r19,__zero_reg__
	brlo .L12
	ldi r25,0
.L12:
	ldi r24,lo8(1)
	cpi r28,-6
	cpc r29,__zero_reg__
	brlo .L13
	ldi r24,0
.L13:
	cpse r25,r24
.L16:
	.loc 1 80 0
	sts beepe,r17
.L8:
	.loc 1 82 0
	sts oldtemp.1757+1,r29
	sts oldtemp.1757,r28
	.loc 1 83 0
	cpi r28,-55
	cpc r29,__zero_reg__
	brsh .L14
	.loc 1 84 0
	lds r24,beepe
	tst r24
	brne .+2
	rjmp .L4
	.loc 1 85 0
	sts beepc+1,__zero_reg__
	sts beepc,__zero_reg__
	.loc 1 86 0
	sbi 0x11,5
	.loc 1 87 0
	out 0x36,r11
	rjmp .L4
.L14:
	.loc 1 89 0
	cpi r28,44
	sbci r29,1
	brlo .L15
	.loc 1 90 0
	lds r24,beepe
	tst r24
	brne .+2
	rjmp .L4
	rjmp .L23
.L15:
	.loc 1 96 0
	sts beepc+1,r15
	sts beepc,r14
	rjmp .L4
.LBE2:
	.cfi_endproc
.LFE6:
	.size	main, .-main
	.section	.text.__vector_5,"ax",@progbits
.global	__vector_5
	.type	__vector_5, @function
__vector_5:
.LFB8:
	.loc 1 111 0
	.cfi_startproc
	push r1
.LCFI2:
	.cfi_def_cfa_offset 3
	.cfi_offset 1, -2
	push r0
.LCFI3:
	.cfi_def_cfa_offset 4
	.cfi_offset 0, -3
	in r0,__SREG__
	push r0
	clr __zero_reg__
	push r18
.LCFI4:
	.cfi_def_cfa_offset 5
	.cfi_offset 18, -4
	push r19
.LCFI5:
	.cfi_def_cfa_offset 6
	.cfi_offset 19, -5
	push r20
.LCFI6:
	.cfi_def_cfa_offset 7
	.cfi_offset 20, -6
	push r22
.LCFI7:
	.cfi_def_cfa_offset 8
	.cfi_offset 22, -7
	push r23
.LCFI8:
	.cfi_def_cfa_offset 9
	.cfi_offset 23, -8
	push r24
.LCFI9:
	.cfi_def_cfa_offset 10
	.cfi_offset 24, -9
	push r25
.LCFI10:
	.cfi_def_cfa_offset 11
	.cfi_offset 25, -10
	push r30
.LCFI11:
	.cfi_def_cfa_offset 12
	.cfi_offset 30, -11
	push r31
.LCFI12:
	.cfi_def_cfa_offset 13
	.cfi_offset 31, -12
/* prologue: Signal */
/* frame size = 0 */
/* stack size = 12 */
.L__stack_usage = 12
	.loc 1 113 0
	in r24,0x12
	andi r24,lo8(99)
	out 0x12,r24
	.loc 1 114 0
	lds r30,dnumber.1769
	ldi r31,0
	subi r30,lo8(-(leddata))
	sbci r31,hi8(-(leddata))
	ld r24,Z
	com r24
	out 0x18,r24
	.loc 1 115 0
	in r24,0x1b
	andi r24,lo8(5)
	out 0x1b,r24
	.loc 1 116 0
	in r24,0x1b
	lds r25,dnumber.1769
	cpi r25,lo8(1)
	brne .L31
	ldi r25,0
	rjmp .L26
.L31:
	ldi r25,lo8(2)
.L26:
	.loc 1 116 0 is_stmt 0 discriminator 4
	or r24,r25
	out 0x1b,r24
	.loc 1 117 0 is_stmt 1 discriminator 4
	in r20,0x12
	lds r24,dnumber.1769
	ldi r18,lo8(4)
	ldi r19,0
	sub r18,r24
	sbc r19,__zero_reg__
	ldi r24,lo8(1)
	ldi r25,0
	rjmp 2f
	1:
	lsl r24
	2:
	dec r18
	brpl 1b
	or r24,r20
	out 0x12,r24
	.loc 1 119 0 discriminator 4
	lds r24,dnumber.1769
	subi r24,lo8(-(1))
	ldi r22,lo8(3)
	rcall __udivmodqi4
	sts dnumber.1769,r25
	.loc 1 121 0 discriminator 4
	lds r24,beepe
	tst r24
	breq .L27
	.loc 1 122 0
	lds r24,beepc
	lds r25,beepc+1
	cpi r24,32
	sbci r25,3
	brne .L28
	.loc 1 123 0
	in r25,0x11
	ldi r24,lo8(32)
	eor r24,r25
	out 0x11,r24
	.loc 1 124 0
	sts beepc+1,__zero_reg__
	sts beepc,__zero_reg__
	rjmp .L29
.L28:
	.loc 1 125 0
	lds r24,beepc
	lds r25,beepc+1
	adiw r24,1
	brne .L29
	.loc 1 125 0 discriminator 1
	cbi 0x11,5
.L29:
	.loc 1 126 0
	lds r24,beepc
	lds r25,beepc+1
	adiw r24,1
	breq .L25
	.loc 1 126 0 is_stmt 0 discriminator 1
	lds r24,beepc
	lds r25,beepc+1
	adiw r24,1
	rjmp .L35
.L27:
	.loc 1 128 0 is_stmt 1
	cbi 0x11,5
	.loc 1 129 0
	ldi r24,lo8(-1)
	ldi r25,lo8(-1)
.L35:
	sts beepc+1,r25
	sts beepc,r24
.L25:
/* epilogue start */
	.loc 1 131 0
	pop r31
	pop r30
	pop r25
	pop r24
	pop r23
	pop r22
	pop r20
	pop r19
	pop r18
	pop r0
	out __SREG__,r0
	pop r0
	pop r1
	reti
	.cfi_endproc
.LFE8:
	.size	__vector_5, .-__vector_5
	.section	.text.__vector_3,"ax",@progbits
.global	__vector_3
	.type	__vector_3, @function
__vector_3:
.LFB9:
	.loc 1 133 0
	.cfi_startproc
	push r1
.LCFI13:
	.cfi_def_cfa_offset 3
	.cfi_offset 1, -2
	push r0
.LCFI14:
	.cfi_def_cfa_offset 4
	.cfi_offset 0, -3
	in r0,__SREG__
	push r0
	clr __zero_reg__
/* prologue: Signal */
/* frame size = 0 */
/* stack size = 3 */
.L__stack_usage = 3
	.loc 1 134 0
	sts beepe,__zero_reg__
/* epilogue start */
	.loc 1 135 0
	pop r0
	out __SREG__,r0
	pop r0
	pop r1
	reti
	.cfi_endproc
.LFE9:
	.size	__vector_3, .-__vector_3
	.section	.bss.dnumber.1769,"aw",@nobits
	.type	dnumber.1769, @object
	.size	dnumber.1769, 1
dnumber.1769:
	.zero	1
	.section	.bss.oldtemp.1757,"aw",@nobits
	.type	oldtemp.1757, @object
	.size	oldtemp.1757, 2
oldtemp.1757:
	.zero	2
.global	lednumbers
	.section	.data.lednumbers,"aw",@progbits
	.type	lednumbers, @object
	.size	lednumbers, 10
lednumbers:
	.byte	127
	.byte	14
	.byte	-73
	.byte	-97
	.byte	-50
	.byte	-37
	.byte	-5
	.byte	15
	.byte	-1
	.byte	-33
	.comm	leddata,3,1
.global	beepe
	.section	.bss.beepe,"aw",@nobits
	.type	beepe, @object
	.size	beepe, 1
beepe:
	.zero	1
.global	beepc
	.section	.data.beepc,"aw",@progbits
	.type	beepc, @object
	.size	beepc, 2
beepc:
	.word	-1
	.text
.Letext0:
	.file 2 "c:\\program files (x86)\\atmel\\studio\\7.0\\toolchain\\avr8\\avr8-gnu-toolchain\\avr\\include\\stdint.h"
	.file 3 ".././1wire.h"